target datalayout = "e-m:e-p270:32:32-p271:32:32-p272:64:64-i64:64-i128:128-f80:128-n8:16:32:64-S128"
target triple = "x86_64-pc-linux-gnu"

%class.btVector3 = type { [4 x float] }
%"struct.btDiscreteCollisionDetectorInterface::Result" = type { ptr }
%struct.btWithoutMarginResult = type <{ %"struct.btDiscreteCollisionDetectorInterface::Result", ptr, %class.btVector3, float, float, float, i8, [3 x i8] }>

; Function Attrs: inlinehint mustprogress nounwind uwtable
define linkonce_odr dso_local void @_ZN9btVector3C2ERKfS1_S1_(ptr noundef nonnull align 4 dereferenceable(16) %0, ptr noundef nonnull align 4 dereferenceable(4) %1, ptr noundef nonnull align 4 dereferenceable(4) %2, ptr noundef nonnull align 4 dereferenceable(4) %3) unnamed_addr #8 comdat align 2 {
  %5 = alloca ptr, align 8
  %6 = alloca ptr, align 8
  %7 = alloca ptr, align 8
  %8 = alloca ptr, align 8
  store ptr %0, ptr %5, align 8, !tbaa !101
  store ptr %1, ptr %6, align 8, !tbaa !159
  store ptr %2, ptr %7, align 8, !tbaa !159
  store ptr %3, ptr %8, align 8, !tbaa !159
  %9 = load ptr, ptr %5, align 8
  %10 = load ptr, ptr %6, align 8, !tbaa !159
  %11 = load float, ptr %10, align 4, !tbaa !66
  %12 = getelementptr inbounds nuw %class.btVector3, ptr %9, i32 0, i32 0
  %13 = getelementptr inbounds [4 x float], ptr %12, i64 0, i64 0
  store float %11, ptr %13, align 4, !tbaa !66
  %14 = load ptr, ptr %7, align 8, !tbaa !159
  %15 = load float, ptr %14, align 4, !tbaa !66
  %16 = getelementptr inbounds nuw %class.btVector3, ptr %9, i32 0, i32 0
  %17 = getelementptr inbounds [4 x float], ptr %16, i64 0, i64 1
  store float %15, ptr %17, align 4, !tbaa !66
  %18 = load ptr, ptr %8, align 8, !tbaa !159
  %19 = load float, ptr %18, align 4, !tbaa !66
  %20 = getelementptr inbounds nuw %class.btVector3, ptr %9, i32 0, i32 0
  %21 = getelementptr inbounds [4 x float], ptr %20, i64 0, i64 2
  store float %19, ptr %21, align 4, !tbaa !66
  %22 = getelementptr inbounds nuw %class.btVector3, ptr %9, i32 0, i32 0
  %23 = getelementptr inbounds [4 x float], ptr %22, i64 0, i64 3
  store float 0.000000e+00, ptr %23, align 4, !tbaa !66
  ret void
}

; Function Attrs: inlinehint mustprogress uwtable
define linkonce_odr dso_local { <2 x float>, <2 x float> } @_ZmiRK9btVector3S1_(ptr noundef nonnull align 4 dereferenceable(16) %0, ptr noundef nonnull align 4 dereferenceable(16) %1) #11 comdat {
  %3 = alloca %class.btVector3, align 4
  %4 = alloca ptr, align 8
  %5 = alloca ptr, align 8
  %6 = alloca float, align 4
  %7 = alloca float, align 4
  %8 = alloca float, align 4
  store ptr %0, ptr %4, align 8, !tbaa !101
  store ptr %1, ptr %5, align 8, !tbaa !101
  call void @llvm.lifetime.start.p0(i64 4, ptr %6) #15
  %9 = load ptr, ptr %4, align 8, !tbaa !101
  %10 = getelementptr inbounds nuw %class.btVector3, ptr %9, i32 0, i32 0
  %11 = getelementptr inbounds [4 x float], ptr %10, i64 0, i64 0
  %12 = load float, ptr %11, align 4, !tbaa !66
  %13 = load ptr, ptr %5, align 8, !tbaa !101
  %14 = getelementptr inbounds nuw %class.btVector3, ptr %13, i32 0, i32 0
  %15 = getelementptr inbounds [4 x float], ptr %14, i64 0, i64 0
  %16 = load float, ptr %15, align 4, !tbaa !66
  %17 = fsub float %12, %16
  store float %17, ptr %6, align 4, !tbaa !66
  call void @llvm.lifetime.start.p0(i64 4, ptr %7) #15
  %18 = load ptr, ptr %4, align 8, !tbaa !101
  %19 = getelementptr inbounds nuw %class.btVector3, ptr %18, i32 0, i32 0
  %20 = getelementptr inbounds [4 x float], ptr %19, i64 0, i64 1
  %21 = load float, ptr %20, align 4, !tbaa !66
  %22 = load ptr, ptr %5, align 8, !tbaa !101
  %23 = getelementptr inbounds nuw %class.btVector3, ptr %22, i32 0, i32 0
  %24 = getelementptr inbounds [4 x float], ptr %23, i64 0, i64 1
  %25 = load float, ptr %24, align 4, !tbaa !66
  %26 = fsub float %21, %25
  store float %26, ptr %7, align 4, !tbaa !66
  call void @llvm.lifetime.start.p0(i64 4, ptr %8) #15
  %27 = load ptr, ptr %4, align 8, !tbaa !101
  %28 = getelementptr inbounds nuw %class.btVector3, ptr %27, i32 0, i32 0
  %29 = getelementptr inbounds [4 x float], ptr %28, i64 0, i64 2
  %30 = load float, ptr %29, align 4, !tbaa !66
  %31 = load ptr, ptr %5, align 8, !tbaa !101
  %32 = getelementptr inbounds nuw %class.btVector3, ptr %31, i32 0, i32 0
  %33 = getelementptr inbounds [4 x float], ptr %32, i64 0, i64 2
  %34 = load float, ptr %33, align 4, !tbaa !66
  %35 = fsub float %30, %34
  store float %35, ptr %8, align 4, !tbaa !66
  call void @_ZN9btVector3C2ERKfS1_S1_(ptr noundef nonnull align 4 dereferenceable(16) %3, ptr noundef nonnull align 4 dereferenceable(4) %6, ptr noundef nonnull align 4 dereferenceable(4) %7, ptr noundef nonnull align 4 dereferenceable(4) %8)
  call void @llvm.lifetime.end.p0(i64 4, ptr %8) #15
  call void @llvm.lifetime.end.p0(i64 4, ptr %7) #15
  call void @llvm.lifetime.end.p0(i64 4, ptr %6) #15
  %36 = getelementptr inbounds nuw %class.btVector3, ptr %3, i32 0, i32 0
  %37 = load { <2 x float>, <2 x float> }, ptr %36, align 4
  ret { <2 x float>, <2 x float> } %37
}

; Function Attrs: inlinehint mustprogress uwtable
define linkonce_odr dso_local { <2 x float>, <2 x float> } @_ZmlRK9btVector3RKf(ptr noundef nonnull align 4 dereferenceable(16) %0, ptr noundef nonnull align 4 dereferenceable(4) %1) #11 comdat {
  %3 = alloca %class.btVector3, align 4
  %4 = alloca ptr, align 8
  %5 = alloca ptr, align 8
  %6 = alloca float, align 4
  %7 = alloca float, align 4
  %8 = alloca float, align 4
  store ptr %0, ptr %4, align 8, !tbaa !101
  store ptr %1, ptr %5, align 8, !tbaa !159
  call void @llvm.lifetime.start.p0(i64 4, ptr %6) #15
  %9 = load ptr, ptr %4, align 8, !tbaa !101
  %10 = getelementptr inbounds nuw %class.btVector3, ptr %9, i32 0, i32 0
  %11 = getelementptr inbounds [4 x float], ptr %10, i64 0, i64 0
  %12 = load float, ptr %11, align 4, !tbaa !66
  %13 = load ptr, ptr %5, align 8, !tbaa !159
  %14 = load float, ptr %13, align 4, !tbaa !66
  %15 = fmul float %12, %14
  store float %15, ptr %6, align 4, !tbaa !66
  call void @llvm.lifetime.start.p0(i64 4, ptr %7) #15
  %16 = load ptr, ptr %4, align 8, !tbaa !101
  %17 = getelementptr inbounds nuw %class.btVector3, ptr %16, i32 0, i32 0
  %18 = getelementptr inbounds [4 x float], ptr %17, i64 0, i64 1
  %19 = load float, ptr %18, align 4, !tbaa !66
  %20 = load ptr, ptr %5, align 8, !tbaa !159
  %21 = load float, ptr %20, align 4, !tbaa !66
  %22 = fmul float %19, %21
  store float %22, ptr %7, align 4, !tbaa !66
  call void @llvm.lifetime.start.p0(i64 4, ptr %8) #15
  %23 = load ptr, ptr %4, align 8, !tbaa !101
  %24 = getelementptr inbounds nuw %class.btVector3, ptr %23, i32 0, i32 0
  %25 = getelementptr inbounds [4 x float], ptr %24, i64 0, i64 2
  %26 = load float, ptr %25, align 4, !tbaa !66
  %27 = load ptr, ptr %5, align 8, !tbaa !159
  %28 = load float, ptr %27, align 4, !tbaa !66
  %29 = fmul float %26, %28
  store float %29, ptr %8, align 4, !tbaa !66
  call void @_ZN9btVector3C2ERKfS1_S1_(ptr noundef nonnull align 4 dereferenceable(16) %3, ptr noundef nonnull align 4 dereferenceable(4) %6, ptr noundef nonnull align 4 dereferenceable(4) %7, ptr noundef nonnull align 4 dereferenceable(4) %8)
  call void @llvm.lifetime.end.p0(i64 4, ptr %8) #15
  call void @llvm.lifetime.end.p0(i64 4, ptr %7) #15
  call void @llvm.lifetime.end.p0(i64 4, ptr %6) #15
  %30 = getelementptr inbounds nuw %class.btVector3, ptr %3, i32 0, i32 0
  %31 = load { <2 x float>, <2 x float> }, ptr %30, align 4
  ret { <2 x float>, <2 x float> } %31
}

; Function Attrs: mustprogress uwtable
define internal void @_ZZN23btConvexConvexAlgorithm16processCollisionEPK24btCollisionObjectWrapperS2_RK16btDispatcherInfoP16btManifoldResultEN21btWithoutMarginResult15addContactPointERK9btVector3SB_f(ptr noundef nonnull align 8 dereferenceable(45) %0, ptr noundef nonnull align 4 dereferenceable(16) %1, ptr noundef nonnull align 4 dereferenceable(16) %2, float noundef %3) unnamed_addr #7 align 2 {
  %5 = alloca ptr, align 8
  %6 = alloca ptr, align 8
  %7 = alloca ptr, align 8
  %8 = alloca float, align 4
  %9 = alloca %class.btVector3, align 4
  %10 = alloca %class.btVector3, align 4
  store ptr %0, ptr %5, align 8, !tbaa !130
  store ptr %1, ptr %6, align 8, !tbaa !101
  store ptr %2, ptr %7, align 8, !tbaa !101
  store float %3, ptr %8, align 4, !tbaa !66
  %11 = load ptr, ptr %5, align 8
  %12 = load float, ptr %8, align 4, !tbaa !66
  %13 = getelementptr inbounds nuw %struct.btWithoutMarginResult, ptr %11, i32 0, i32 5
  store float %12, ptr %13, align 8, !tbaa !81
  %14 = load ptr, ptr %6, align 8, !tbaa !101
  %15 = getelementptr inbounds nuw %struct.btWithoutMarginResult, ptr %11, i32 0, i32 2
  call void @llvm.memcpy.p0.p0.i64(ptr align 8 %15, ptr align 4 %14, i64 16, i1 false), !tbaa.struct !80
  call void @llvm.lifetime.start.p0(i64 16, ptr %9) #15
  %16 = load ptr, ptr %7, align 8, !tbaa !101
  call void @llvm.lifetime.start.p0(i64 16, ptr %10) #15
  %17 = load ptr, ptr %6, align 8, !tbaa !101
  %18 = getelementptr inbounds nuw %struct.btWithoutMarginResult, ptr %11, i32 0, i32 4
  %19 = call { <2 x float>, <2 x float> } @_ZmlRK9btVector3RKf(ptr noundef nonnull align 4 dereferenceable(16) %17, ptr noundef nonnull align 4 dereferenceable(4) %18)
  %20 = getelementptr inbounds nuw %class.btVector3, ptr %10, i32 0, i32 0
  %21 = getelementptr inbounds nuw { <2 x float>, <2 x float> }, ptr %20, i32 0, i32 0
  %22 = extractvalue { <2 x float>, <2 x float> } %19, 0
  store <2 x float> %22, ptr %21, align 4
  %23 = getelementptr inbounds nuw { <2 x float>, <2 x float> }, ptr %20, i32 0, i32 1
  %24 = extractvalue { <2 x float>, <2 x float> } %19, 1
  store <2 x float> %24, ptr %23, align 4
  %25 = call { <2 x float>, <2 x float> } @_ZmiRK9btVector3S1_(ptr noundef nonnull align 4 dereferenceable(16) %16, ptr noundef nonnull align 4 dereferenceable(16) %10)
  %26 = getelementptr inbounds nuw %class.btVector3, ptr %9, i32 0, i32 0
  %27 = getelementptr inbounds nuw { <2 x float>, <2 x float> }, ptr %26, i32 0, i32 0
  %28 = extractvalue { <2 x float>, <2 x float> } %25, 0
  store <2 x float> %28, ptr %27, align 4
  %29 = getelementptr inbounds nuw { <2 x float>, <2 x float> }, ptr %26, i32 0, i32 1
  %30 = extractvalue { <2 x float>, <2 x float> } %25, 1
  store <2 x float> %30, ptr %29, align 4
  call void @llvm.lifetime.end.p0(i64 16, ptr %10) #15
  %31 = load float, ptr %8, align 4, !tbaa !66
  %32 = getelementptr inbounds nuw %struct.btWithoutMarginResult, ptr %11, i32 0, i32 3
  %33 = load float, ptr %32, align 8, !tbaa !134
  %34 = getelementptr inbounds nuw %struct.btWithoutMarginResult, ptr %11, i32 0, i32 4
  %35 = load float, ptr %34, align 4, !tbaa !135
  %36 = fadd float %33, %35
  %37 = fadd float %31, %36
  %38 = getelementptr inbounds nuw %struct.btWithoutMarginResult, ptr %11, i32 0, i32 5
  store float %37, ptr %38, align 8, !tbaa !81
  %39 = getelementptr inbounds nuw %struct.btWithoutMarginResult, ptr %11, i32 0, i32 5
  %40 = load float, ptr %39, align 8, !tbaa !81
  %41 = fcmp olt float %40, 0.000000e+00
  br i1 %41, label %42, label %44

42:                                               ; preds = %4
  %43 = getelementptr inbounds nuw %struct.btWithoutMarginResult, ptr %11, i32 0, i32 6
  store i8 1, ptr %43, align 4, !tbaa !84
  br label %44

44:                                               ; preds = %42, %4
  %45 = getelementptr inbounds nuw %struct.btWithoutMarginResult, ptr %11, i32 0, i32 1
  %46 = load ptr, ptr %45, align 8, !tbaa !133
  %47 = load ptr, ptr %6, align 8, !tbaa !101
  %48 = getelementptr inbounds nuw %struct.btWithoutMarginResult, ptr %11, i32 0, i32 5
  %49 = load float, ptr %48, align 8, !tbaa !81
  %50 = load ptr, ptr %46, align 8, !tbaa !16
  %51 = getelementptr inbounds ptr, ptr %50, i64 4
  %52 = load ptr, ptr %51, align 8
  call void %52(ptr noundef nonnull align 8 dereferenceable(8) %46, ptr noundef nonnull align 4 dereferenceable(16) %47, ptr noundef nonnull align 4 dereferenceable(16) %9, float noundef %49)
  call void @llvm.lifetime.end.p0(i64 16, ptr %9) #15
  ret void
}