; Function Attrs: mustprogress uwtable
define internal void @_ZZN23btConvexConvexAlgorithm16processCollisionEPK24btCollisionObjectWrapperS2_RK16btDispatcherInfoP16btManifoldResultEN21btWithoutMarginResult15addContactPointERK9btVector3SB_f(ptr noundef nonnull align 8 captures(none) dereferenceable(45) initializes((16, 32), (40, 44)) %0, ptr noundef nonnull align 4 dereferenceable(16) %1, ptr noundef nonnull readonly align 4 captures(none) dereferenceable(16) %2, float noundef %3) unnamed_addr #9 align 2 {
  %5 = alloca %class.btVector3, align 8
  %6 = getelementptr inbounds nuw i8, ptr %0, i64 40
  store float %3, ptr %6, align 8, !tbaa !96
  %7 = getelementptr inbounds nuw i8, ptr %0, i64 16
  tail call void @llvm.memcpy.p0.p0.i64(ptr noundef nonnull align 8 dereferenceable(16) %7, ptr noundef nonnull align 4 dereferenceable(16) %1, i64 16, i1 false), !tbaa.struct !81
  call void @llvm.lifetime.start.p0(i64 16, ptr nonnull %5) #22
  %8 = getelementptr inbounds nuw i8, ptr %0, i64 36
  %9 = load float, ptr %1, align 4, !tbaa !58
  %10 = load float, ptr %8, align 4, !tbaa !58
  %11 = fmul float %9, %10
  %12 = getelementptr inbounds nuw i8, ptr %1, i64 4
  %13 = load float, ptr %12, align 4, !tbaa !58
  %14 = fmul float %10, %13
  %15 = getelementptr inbounds nuw i8, ptr %1, i64 8
  %16 = load float, ptr %15, align 4, !tbaa !58
  %17 = fmul float %10, %16
  %18 = load float, ptr %2, align 4, !tbaa !58
  %19 = fsub float %18, %11
  %20 = getelementptr inbounds nuw i8, ptr %2, i64 4
  %21 = load float, ptr %20, align 4, !tbaa !58
  %22 = fsub float %21, %14
  %23 = getelementptr inbounds nuw i8, ptr %2, i64 8
  %24 = load float, ptr %23, align 4, !tbaa !58
  %25 = fsub float %24, %17
  %.sroa.0.0.vec.insert.i7 = insertelement <2 x float> poison, float %19, i64 0
  %.sroa.0.4.vec.insert.i8 = insertelement <2 x float> %.sroa.0.0.vec.insert.i7, float %22, i64 1
  %.sroa.3.12.vec.insert.i9 = insertelement <2 x float> <float poison, float 0.000000e+00>, float %25, i64 0
  store <2 x float> %.sroa.0.4.vec.insert.i8, ptr %5, align 8
  %26 = getelementptr inbounds nuw i8, ptr %5, i64 8
  store <2 x float> %.sroa.3.12.vec.insert.i9, ptr %26, align 8
  %27 = getelementptr inbounds nuw i8, ptr %0, i64 32
  %28 = load float, ptr %27, align 8, !tbaa !86
  %29 = fadd float %10, %28
  %30 = fadd float %3, %29
  store float %30, ptr %6, align 8, !tbaa !96
  %31 = fcmp olt float %30, 0.000000e+00
  br i1 %31, label %32, label %34

32:                                               ; preds = %4
  %33 = getelementptr inbounds nuw i8, ptr %0, i64 44
  store i8 1, ptr %33, align 4, !tbaa !88
  br label %34

34:                                               ; preds = %32, %4
  %35 = getelementptr inbounds nuw i8, ptr %0, i64 8
  %36 = load ptr, ptr %35, align 8, !tbaa !83
  %37 = load ptr, ptr %36, align 8, !tbaa !9
  %38 = getelementptr inbounds nuw i8, ptr %37, i64 32
  %39 = load ptr, ptr %38, align 8
  call void %39(ptr noundef nonnull align 8 dereferenceable(8) %36, ptr noundef nonnull align 4 dereferenceable(16) %1, ptr noundef nonnull align 4 dereferenceable(16) %5, float noundef %30)
  call void @llvm.lifetime.end.p0(i64 16, ptr nonnull %5) #22
  ret void
}